; Function Attrs: mustprogress nounwind uwtable
define dso_local void @_ZN4llvm8codeview19SymbolRecordMapping16visitKnownRecordERNS0_8CVRecordINS0_10SymbolKindEEERNS0_12BuildInfoSymE(ptr dead_on_unwind noalias writable sret(%"class.llvm::Error") align 8 %0, ptr noundef nonnull align 8 dereferenceable(92) %1, ptr nocapture nonnull readnone align 1 %2, ptr noundef nonnull align 4 dereferenceable(12) %3) unnamed_addr #0 align 2 {
_ZN4llvm5ErrorD2Ev.exit:
  %4 = alloca %"class.llvm::Twine", align 8
  %5 = getelementptr inbounds nuw i8, ptr %1, i64 16
  %6 = getelementptr inbounds nuw i8, ptr %3, i64 2
  %7 = getelementptr inbounds nuw i8, ptr %4, i64 32
  store i16 257, ptr %7, align 8
  call void @_ZN4llvm8codeview16CodeViewRecordIO10mapIntegerERNS0_9TypeIndexERKNS_5TwineE(ptr dead_on_unwind writable sret(%"class.llvm::Error") align 8 %0, ptr noundef nonnull align 8 dereferenceable(72) %5, ptr noundef nonnull align 1 dereferenceable(4) %6, ptr noundef nonnull align 8 dereferenceable(34) %4) #16
  ret void
}